; Function Attrs: mustprogress nofree norecurse nosync nounwind willreturn memory(read, inaccessiblemem: none) uwtable
define range(i32 -1, 2) i32 @Abc_NodeCompareLevelsIncrease(ptr noundef readonly captures(none) %0, ptr noundef readonly captures(none) %1) local_unnamed_addr #4 {
  %3 = load ptr, ptr %0, align 8
  %4 = ptrtoint ptr %3 to i64
  %5 = and i64 %4, -2
  %6 = inttoptr i64 %5 to ptr
  %7 = getelementptr inbounds nuw i8, ptr %6, i64 20
  %8 = load i32, ptr %7, align 4
  %9 = lshr i32 %8, 12
  %10 = load ptr, ptr %1, align 8
  %11 = ptrtoint ptr %10 to i64
  %12 = and i64 %11, -2
  %13 = inttoptr i64 %12 to ptr
  %14 = getelementptr inbounds nuw i8, ptr %13, i64 20
  %15 = load i32, ptr %14, align 4
  %16 = lshr i32 %15, 12
  %17 = icmp samesign ult i32 %9, %16
  br i1 %17, label %26, label %18

18:                                               ; preds = %2
  %.not = icmp eq i32 %9, %16
  br i1 %.not, label %19, label %26

19:                                               ; preds = %18
  %20 = getelementptr inbounds nuw i8, ptr %6, i64 16
  %21 = load i32, ptr %20, align 8
  %22 = getelementptr inbounds nuw i8, ptr %13, i64 16
  %23 = load i32, ptr %22, align 8
  %24 = icmp slt i32 %21, %23
  br i1 %24, label %26, label %25

25:                                               ; preds = %19
  %.not10 = icmp ne i32 %21, %23
  %. = zext i1 %.not10 to i32
  br label %26

26:                                               ; preds = %25, %19, %18, %2
  %.0 = phi i32 [ -1, %2 ], [ 1, %18 ], [ -1, %19 ], [ %., %25 ]
  ret i32 %.0
}